; Function Attrs: mustprogress nounwind uwtable
define internal fastcc void @_ZNSt16allocator_traitsISaIN12_GLOBAL__N_111SimInstance13print_state_tEEE7destroyIS2_EEvRS3_PT_(ptr noundef %0) unnamed_addr #3 align 2 personality ptr @__gxx_personality_v0 {
  %2 = getelementptr inbounds i8, ptr %0, i64 112
  tail call void @_ZNSt6vectorIN5Yosys7FmtPartESaIS1_EED2Ev(ptr noundef nonnull align 8 dereferenceable(24) %2) #31
  %3 = getelementptr inbounds i8, ptr %0, i64 80
  %4 = load ptr, ptr %3, align 8
  %.not.i.i.i.i.i.i = icmp eq ptr %4, null
  br i1 %.not.i.i.i.i.i.i, label %_ZN5Yosys5RTLIL5ConstD2Ev.exit.i.i, label %5

5:                                                ; preds = %1
  tail call void @_ZdlPv(ptr noundef nonnull %4) #32
  br label %_ZN5Yosys5RTLIL5ConstD2Ev.exit.i.i

_ZN5Yosys5RTLIL5ConstD2Ev.exit.i.i:               ; preds = %5, %1
  %6 = getelementptr inbounds i8, ptr %0, i64 48
  %7 = load ptr, ptr %6, align 8
  %.not.i.i.i.i1.i.i = icmp eq ptr %7, null
  br i1 %.not.i.i.i.i1.i.i, label %_ZN5Yosys5RTLIL5ConstD2Ev.exit2.i.i, label %8

8:                                                ; preds = %_ZN5Yosys5RTLIL5ConstD2Ev.exit.i.i
  tail call void @_ZdlPv(ptr noundef nonnull %7) #32
  br label %_ZN5Yosys5RTLIL5ConstD2Ev.exit2.i.i

_ZN5Yosys5RTLIL5ConstD2Ev.exit2.i.i:              ; preds = %8, %_ZN5Yosys5RTLIL5ConstD2Ev.exit.i.i
  %9 = getelementptr inbounds i8, ptr %0, i64 16
  %10 = load ptr, ptr %9, align 8
  %.not.i.i.i.i3.i.i = icmp eq ptr %10, null
  br i1 %.not.i.i.i.i3.i.i, label %_ZNSt15__new_allocatorIN12_GLOBAL__N_111SimInstance13print_state_tEE7destroyIS2_EEvPT_.exit, label %11

11:                                               ; preds = %_ZN5Yosys5RTLIL5ConstD2Ev.exit2.i.i
  tail call void @_ZdlPv(ptr noundef nonnull %10) #32
  br label %_ZNSt15__new_allocatorIN12_GLOBAL__N_111SimInstance13print_state_tEE7destroyIS2_EEvPT_.exit

_ZNSt15__new_allocatorIN12_GLOBAL__N_111SimInstance13print_state_tEE7destroyIS2_EEvPT_.exit: ; preds = %_ZN5Yosys5RTLIL5ConstD2Ev.exit2.i.i, %11
  ret void
}